target datalayout = "e-m:e-p270:32:32-p271:32:32-p272:64:64-i64:64-i128:128-f80:128-n8:16:32:64-S128"
target triple = "x86_64-pc-linux-gnu"

%struct.ParseState = type { ptr, ptr, i32, i32, ptr, ptr, ptr, ptr, ptr, ptr, i8, ptr, ptr, ptr, ptr, ptr, ptr, i8, ptr, i32, i32, ptr, ptr, i8, i8, ptr, i8, i8, i8, i8, i8, ptr, ptr, ptr, ptr, ptr, ptr }
%struct.List = type { i32, i32, i32, ptr, [0 x %union.ListCell] }
%union.ListCell = type { ptr }
%struct.ParseNamespaceItem = type { ptr, ptr, i32, ptr, ptr, i8, i8, i8, i8, i32 }
%struct.RangeTblEntry = type { i32, ptr, ptr, i32, i32, i8, i8, i32, i32, ptr, ptr, i8, i32, i32, ptr, ptr, ptr, ptr, ptr, i8, ptr, ptr, ptr, i32, i8, ptr, ptr, ptr, ptr, double, ptr, i8, i8, ptr }
%struct.Var = type { %struct.Expr, i32, i16, i32, i32, i32, ptr, i32, i32, i32, i16, i32 }
%struct.Expr = type { i32 }
%struct.String = type { i32, ptr }
%struct.RTEPermissionInfo = type { i32, i32, i8, i64, i32, ptr, ptr, ptr }
%struct.ForBothState = type { ptr, ptr, i32 }

; Function Attrs: nounwind uwtable
define dso_local void @markVarForSelectPriv(ptr noundef %0, ptr noundef %1) #0 {
  %3 = alloca ptr, align 8
  %4 = alloca ptr, align 8
  %5 = alloca i32, align 4
  store ptr %0, ptr %3, align 8
  store ptr %1, ptr %4, align 8
  call void @llvm.lifetime.start.p0(i64 4, ptr %5) #8
  store i32 0, ptr %5, align 4
  br label %6

6:                                                ; preds = %16, %2
  %7 = load i32, ptr %5, align 4
  %8 = load ptr, ptr %4, align 8
  %9 = getelementptr inbounds nuw %struct.Var, ptr %8, i32 0, i32 7
  %10 = load i32, ptr %9, align 8
  %11 = icmp ult i32 %7, %10
  br i1 %11, label %12, label %19

12:                                               ; preds = %6
  %13 = load ptr, ptr %3, align 8
  %14 = getelementptr inbounds nuw %struct.ParseState, ptr %13, i32 0, i32 0
  %15 = load ptr, ptr %14, align 8
  store ptr %15, ptr %3, align 8
  br label %16

16:                                               ; preds = %12
  %17 = load i32, ptr %5, align 4
  %18 = add i32 %17, 1
  store i32 %18, ptr %5, align 4
  br label %6, !llvm.loop !21

19:                                               ; preds = %6
  %20 = load ptr, ptr %3, align 8
  %21 = load ptr, ptr %4, align 8
  %22 = getelementptr inbounds nuw %struct.Var, ptr %21, i32 0, i32 1
  %23 = load i32, ptr %22, align 4
  %24 = load ptr, ptr %4, align 8
  %25 = getelementptr inbounds nuw %struct.Var, ptr %24, i32 0, i32 2
  %26 = load i16, ptr %25, align 8
  call void @markRTEForSelectPriv(ptr noundef %20, i32 noundef %23, i16 noundef signext %26)
  call void @llvm.lifetime.end.p0(i64 4, ptr %5) #8
  ret void
}

; Function Attrs: nounwind uwtable
define dso_local ptr @expandNSItemAttrs(ptr noundef %0, ptr noundef %1, i32 noundef %2, i1 noundef zeroext %3, i32 noundef %4) #0 {
  %6 = alloca ptr, align 8
  %7 = alloca ptr, align 8
  %8 = alloca i32, align 4
  %9 = alloca i8, align 1
  %10 = alloca i32, align 4
  %11 = alloca ptr, align 8
  %12 = alloca ptr, align 8
  %13 = alloca ptr, align 8
  %14 = alloca ptr, align 8
  %15 = alloca ptr, align 8
  %16 = alloca ptr, align 8
  %17 = alloca ptr, align 8
  %18 = alloca %struct.ForBothState, align 8
  %19 = alloca ptr, align 8
  %20 = alloca ptr, align 8
  %21 = alloca ptr, align 8
  store ptr %0, ptr %6, align 8
  store ptr %1, ptr %7, align 8
  store i32 %2, ptr %8, align 4
  %22 = zext i1 %3 to i8
  store i8 %22, ptr %9, align 1
  store i32 %4, ptr %10, align 4
  call void @llvm.lifetime.start.p0(i64 8, ptr %11) #8
  %23 = load ptr, ptr %7, align 8
  %24 = getelementptr inbounds nuw %struct.ParseNamespaceItem, ptr %23, i32 0, i32 1
  %25 = load ptr, ptr %24, align 8
  store ptr %25, ptr %11, align 8
  call void @llvm.lifetime.start.p0(i64 8, ptr %12) #8
  %26 = load ptr, ptr %7, align 8
  %27 = getelementptr inbounds nuw %struct.ParseNamespaceItem, ptr %26, i32 0, i32 3
  %28 = load ptr, ptr %27, align 8
  store ptr %28, ptr %12, align 8
  call void @llvm.lifetime.start.p0(i64 8, ptr %13) #8
  call void @llvm.lifetime.start.p0(i64 8, ptr %14) #8
  call void @llvm.lifetime.start.p0(i64 8, ptr %15) #8
  call void @llvm.lifetime.start.p0(i64 8, ptr %16) #8
  call void @llvm.lifetime.start.p0(i64 8, ptr %17) #8
  store ptr null, ptr %17, align 8
  %29 = load ptr, ptr %6, align 8
  %30 = load ptr, ptr %7, align 8
  %31 = load i32, ptr %8, align 4
  %32 = load i32, ptr %10, align 4
  %33 = call ptr @expandNSItemVars(ptr noundef %29, ptr noundef %30, i32 noundef %31, i32 noundef %32, ptr noundef %13)
  store ptr %33, ptr %14, align 8
  %34 = load ptr, ptr %11, align 8
  %35 = getelementptr inbounds nuw %struct.RangeTblEntry, ptr %34, i32 0, i32 3
  %36 = load i32, ptr %35, align 8
  %37 = icmp eq i32 %36, 0
  br i1 %37, label %38, label %43

38:                                               ; preds = %5
  %39 = load ptr, ptr %12, align 8
  %40 = getelementptr inbounds nuw %struct.RTEPermissionInfo, ptr %39, i32 0, i32 3
  %41 = load i64, ptr %40, align 8
  %42 = or i64 %41, 2
  store i64 %42, ptr %40, align 8
  br label %43

43:                                               ; preds = %38, %5
  call void @llvm.lifetime.start.p0(i64 24, ptr %18) #8
  %44 = getelementptr inbounds nuw %struct.ForBothState, ptr %18, i32 0, i32 0
  %45 = load ptr, ptr %13, align 8
  store ptr %45, ptr %44, align 8
  %46 = getelementptr inbounds nuw %struct.ForBothState, ptr %18, i32 0, i32 1
  %47 = load ptr, ptr %14, align 8
  store ptr %47, ptr %46, align 8
  %48 = getelementptr inbounds nuw %struct.ForBothState, ptr %18, i32 0, i32 2
  store i32 0, ptr %48, align 8
  %49 = getelementptr i8, ptr %18, i64 20
  call void @llvm.memset.p0.i64(ptr align 4 %49, i8 0, i64 4, i1 false)
  br label %50

50:                                               ; preds = %129, %43
  %51 = getelementptr inbounds nuw %struct.ForBothState, ptr %18, i32 0, i32 0
  %52 = load ptr, ptr %51, align 8
  %53 = icmp ne ptr %52, null
  br i1 %53, label %54, label %71

54:                                               ; preds = %50
  %55 = getelementptr inbounds nuw %struct.ForBothState, ptr %18, i32 0, i32 2
  %56 = load i32, ptr %55, align 8
  %57 = getelementptr inbounds nuw %struct.ForBothState, ptr %18, i32 0, i32 0
  %58 = load ptr, ptr %57, align 8
  %59 = getelementptr inbounds nuw %struct.List, ptr %58, i32 0, i32 1
  %60 = load i32, ptr %59, align 4
  %61 = icmp slt i32 %56, %60
  br i1 %61, label %62, label %71

62:                                               ; preds = %54
  %63 = getelementptr inbounds nuw %struct.ForBothState, ptr %18, i32 0, i32 0
  %64 = load ptr, ptr %63, align 8
  %65 = getelementptr inbounds nuw %struct.List, ptr %64, i32 0, i32 3
  %66 = load ptr, ptr %65, align 8
  %67 = getelementptr inbounds nuw %struct.ForBothState, ptr %18, i32 0, i32 2
  %68 = load i32, ptr %67, align 8
  %69 = sext i32 %68 to i64
  %70 = getelementptr inbounds %union.ListCell, ptr %66, i64 %69
  br label %72

71:                                               ; preds = %54, %50
  br label %72

72:                                               ; preds = %71, %62
  %73 = phi ptr [ %70, %62 ], [ null, %71 ]
  store ptr %73, ptr %15, align 8
  %74 = getelementptr inbounds nuw %struct.ForBothState, ptr %18, i32 0, i32 1
  %75 = load ptr, ptr %74, align 8
  %76 = icmp ne ptr %75, null
  br i1 %76, label %77, label %94

77:                                               ; preds = %72
  %78 = getelementptr inbounds nuw %struct.ForBothState, ptr %18, i32 0, i32 2
  %79 = load i32, ptr %78, align 8
  %80 = getelementptr inbounds nuw %struct.ForBothState, ptr %18, i32 0, i32 1
  %81 = load ptr, ptr %80, align 8
  %82 = getelementptr inbounds nuw %struct.List, ptr %81, i32 0, i32 1
  %83 = load i32, ptr %82, align 4
  %84 = icmp slt i32 %79, %83
  br i1 %84, label %85, label %94

85:                                               ; preds = %77
  %86 = getelementptr inbounds nuw %struct.ForBothState, ptr %18, i32 0, i32 1
  %87 = load ptr, ptr %86, align 8
  %88 = getelementptr inbounds nuw %struct.List, ptr %87, i32 0, i32 3
  %89 = load ptr, ptr %88, align 8
  %90 = getelementptr inbounds nuw %struct.ForBothState, ptr %18, i32 0, i32 2
  %91 = load i32, ptr %90, align 8
  %92 = sext i32 %91 to i64
  %93 = getelementptr inbounds %union.ListCell, ptr %89, i64 %92
  br label %95

94:                                               ; preds = %77, %72
  br label %95

95:                                               ; preds = %94, %85
  %96 = phi ptr [ %93, %85 ], [ null, %94 ]
  store ptr %96, ptr %16, align 8
  %97 = load ptr, ptr %15, align 8
  %98 = icmp ne ptr %97, null
  br i1 %98, label %99, label %102

99:                                               ; preds = %95
  %100 = load ptr, ptr %16, align 8
  %101 = icmp ne ptr %100, null
  br label %102

102:                                              ; preds = %99, %95
  %103 = phi i1 [ false, %95 ], [ %101, %99 ]
  br i1 %103, label %105, label %104

104:                                              ; preds = %102
  call void @llvm.lifetime.end.p0(i64 24, ptr %18) #8
  br label %133

105:                                              ; preds = %102
  call void @llvm.lifetime.start.p0(i64 8, ptr %19) #8
  %106 = load ptr, ptr %15, align 8
  %107 = load ptr, ptr %106, align 8
  %108 = getelementptr inbounds nuw %struct.String, ptr %107, i32 0, i32 1
  %109 = load ptr, ptr %108, align 8
  store ptr %109, ptr %19, align 8
  call void @llvm.lifetime.start.p0(i64 8, ptr %20) #8
  %110 = load ptr, ptr %16, align 8
  %111 = load ptr, ptr %110, align 8
  store ptr %111, ptr %20, align 8
  call void @llvm.lifetime.start.p0(i64 8, ptr %21) #8
  %112 = load ptr, ptr %20, align 8
  %113 = load ptr, ptr %6, align 8
  %114 = getelementptr inbounds nuw %struct.ParseState, ptr %113, i32 0, i32 20
  %115 = load i32, ptr %114, align 4
  %116 = add i32 %115, 1
  store i32 %116, ptr %114, align 4
  %117 = trunc i32 %115 to i16
  %118 = load ptr, ptr %19, align 8
  %119 = call ptr @makeTargetEntry(ptr noundef %112, i16 noundef signext %117, ptr noundef %118, i1 noundef zeroext false)
  store ptr %119, ptr %21, align 8
  %120 = load ptr, ptr %17, align 8
  %121 = load ptr, ptr %21, align 8
  %122 = call ptr @lappend(ptr noundef %120, ptr noundef %121)
  store ptr %122, ptr %17, align 8
  %123 = load i8, ptr %9, align 1, !range !6, !noundef !7
  %124 = trunc i8 %123 to i1
  br i1 %124, label %125, label %128

125:                                              ; preds = %105
  %126 = load ptr, ptr %6, align 8
  %127 = load ptr, ptr %20, align 8
  call void @markVarForSelectPriv(ptr noundef %126, ptr noundef %127)
  br label %128

128:                                              ; preds = %125, %105
  call void @llvm.lifetime.end.p0(i64 8, ptr %21) #8
  call void @llvm.lifetime.end.p0(i64 8, ptr %20) #8
  call void @llvm.lifetime.end.p0(i64 8, ptr %19) #8
  br label %129

129:                                              ; preds = %128
  %130 = getelementptr inbounds nuw %struct.ForBothState, ptr %18, i32 0, i32 2
  %131 = load i32, ptr %130, align 8
  %132 = add i32 %131, 1
  store i32 %132, ptr %130, align 8
  br label %50, !llvm.loop !48

133:                                              ; preds = %104
  %134 = load ptr, ptr %17, align 8
  call void @llvm.lifetime.end.p0(i64 8, ptr %17) #8
  call void @llvm.lifetime.end.p0(i64 8, ptr %16) #8
  call void @llvm.lifetime.end.p0(i64 8, ptr %15) #8
  call void @llvm.lifetime.end.p0(i64 8, ptr %14) #8
  call void @llvm.lifetime.end.p0(i64 8, ptr %13) #8
  call void @llvm.lifetime.end.p0(i64 8, ptr %12) #8
  call void @llvm.lifetime.end.p0(i64 8, ptr %11) #8
  ret ptr %134
}