; Function Attrs: nounwind uwtable
define dso_local ptr @expandNSItemAttrs(ptr noundef captures(none) %0, ptr noundef readonly captures(none) %1, i32 noundef %2, i1 noundef zeroext %3, i32 noundef %4) local_unnamed_addr #0 {
  %6 = alloca ptr, align 8
  %7 = getelementptr inbounds nuw i8, ptr %1, i64 8
  %8 = load ptr, ptr %7, align 8
  %9 = getelementptr inbounds nuw i8, ptr %1, i64 24
  %10 = load ptr, ptr %9, align 8
  call void @llvm.lifetime.start.p0(i64 8, ptr nonnull %6) #11
  %11 = call ptr @expandNSItemVars(ptr noundef %0, ptr noundef %1, i32 noundef %2, i32 noundef %4, ptr noundef nonnull %6)
  %12 = getelementptr inbounds nuw i8, ptr %8, i64 24
  %13 = load i32, ptr %12, align 8
  %14 = icmp eq i32 %13, 0
  br i1 %14, label %15, label %19

15:                                               ; preds = %5
  %16 = getelementptr inbounds nuw i8, ptr %10, i64 16
  %17 = load i64, ptr %16, align 8
  %18 = or i64 %17, 2
  store i64 %18, ptr %16, align 8
  br label %19

19:                                               ; preds = %15, %5
  %20 = load ptr, ptr %6, align 8
  %21 = getelementptr inbounds nuw i8, ptr %11, i64 4
  %.not = icmp eq ptr %20, null
  %.not33 = icmp eq ptr %11, null
  %22 = getelementptr inbounds nuw i8, ptr %20, i64 4
  %23 = getelementptr inbounds nuw i8, ptr %20, i64 16
  %24 = getelementptr inbounds nuw i8, ptr %11, i64 16
  %25 = getelementptr inbounds nuw i8, ptr %0, i64 148
  br i1 %.not33, label %.thread, label %.split

.split:                                           ; preds = %19
  br i1 %3, label %.split.split.us, label %.split.split

.split.split.us:                                  ; preds = %.split
  br i1 %.not, label %.thread, label %.split.split.us.split

.split.split.us.split:                            ; preds = %.split.split.us, %markVarForSelectPriv.exit.us
  %.sroa.10.0.us34 = phi i32 [ %61, %markVarForSelectPriv.exit.us ], [ 0, %.split.split.us ]
  %.0.us35 = phi ptr [ %52, %markVarForSelectPriv.exit.us ], [ null, %.split.split.us ]
  %26 = load i32, ptr %22, align 4
  %27 = icmp slt i32 %.sroa.10.0.us34, %26
  br i1 %27, label %28, label %32

28:                                               ; preds = %.split.split.us.split
  %29 = load ptr, ptr %23, align 8
  %30 = sext i32 %.sroa.10.0.us34 to i64
  %31 = getelementptr inbounds %union.ListCell, ptr %29, i64 %30
  br label %32

32:                                               ; preds = %28, %.split.split.us.split
  %33 = phi ptr [ %31, %28 ], [ null, %.split.split.us.split ]
  %34 = load i32, ptr %21, align 4
  %35 = icmp slt i32 %.sroa.10.0.us34, %34
  br i1 %35, label %36, label %.thread

36:                                               ; preds = %32
  %37 = load ptr, ptr %24, align 8
  %38 = icmp ne ptr %33, null
  %39 = icmp ne ptr %37, null
  %40 = select i1 %38, i1 %39, i1 false
  br i1 %40, label %41, label %.thread

41:                                               ; preds = %36
  %42 = sext i32 %.sroa.10.0.us34 to i64
  %43 = getelementptr inbounds %union.ListCell, ptr %37, i64 %42
  %44 = load ptr, ptr %33, align 8
  %45 = getelementptr inbounds nuw i8, ptr %44, i64 8
  %46 = load ptr, ptr %45, align 8
  %47 = load ptr, ptr %43, align 8
  %48 = load i32, ptr %25, align 4
  %49 = add i32 %48, 1
  store i32 %49, ptr %25, align 4
  %50 = trunc i32 %48 to i16
  %51 = call ptr @makeTargetEntry(ptr noundef %47, i16 noundef signext %50, ptr noundef %46, i1 noundef zeroext false) #11
  %52 = call ptr @lappend(ptr noundef %.0.us35, ptr noundef %51) #11
  %53 = getelementptr inbounds nuw i8, ptr %47, i64 32
  %54 = load i32, ptr %53, align 8
  %.not.i.us = icmp eq i32 %54, 0
  br i1 %.not.i.us, label %markVarForSelectPriv.exit.us, label %.lr.ph.i.us

.lr.ph.i.us:                                      ; preds = %41, %.lr.ph.i.us
  %.08.i.us = phi i32 [ %56, %.lr.ph.i.us ], [ 0, %41 ]
  %.067.i.us = phi ptr [ %55, %.lr.ph.i.us ], [ %0, %41 ]
  %55 = load ptr, ptr %.067.i.us, align 8
  %56 = add nuw i32 %.08.i.us, 1
  %exitcond.not.i.us = icmp eq i32 %56, %54
  br i1 %exitcond.not.i.us, label %markVarForSelectPriv.exit.us, label %.lr.ph.i.us, !llvm.loop !13

markVarForSelectPriv.exit.us:                     ; preds = %.lr.ph.i.us, %41
  %.06.lcssa.i.us = phi ptr [ %0, %41 ], [ %55, %.lr.ph.i.us ]
  %57 = getelementptr inbounds nuw i8, ptr %47, i64 4
  %58 = load i32, ptr %57, align 4
  %59 = getelementptr inbounds nuw i8, ptr %47, i64 8
  %60 = load i16, ptr %59, align 8
  call fastcc void @markRTEForSelectPriv(ptr noundef %.06.lcssa.i.us, i32 noundef %58, i16 noundef signext %60)
  %61 = add nuw i32 %.sroa.10.0.us34, 1
  br label %.split.split.us.split, !llvm.loop !30

.split.split:                                     ; preds = %.split
  br i1 %.not, label %.thread, label %.split.split.split

.split.split.split:                               ; preds = %.split.split, %77
  %.sroa.10.0 = phi i32 [ %89, %77 ], [ 0, %.split.split ]
  %.0 = phi ptr [ %88, %77 ], [ null, %.split.split ]
  %62 = load i32, ptr %22, align 4
  %63 = icmp slt i32 %.sroa.10.0, %62
  br i1 %63, label %64, label %68

64:                                               ; preds = %.split.split.split
  %65 = load ptr, ptr %23, align 8
  %66 = zext nneg i32 %.sroa.10.0 to i64
  %67 = getelementptr inbounds nuw %union.ListCell, ptr %65, i64 %66
  br label %68

68:                                               ; preds = %.split.split.split, %64
  %69 = phi ptr [ %67, %64 ], [ null, %.split.split.split ]
  %70 = load i32, ptr %21, align 4
  %71 = icmp slt i32 %.sroa.10.0, %70
  br i1 %71, label %72, label %.thread

72:                                               ; preds = %68
  %73 = load ptr, ptr %24, align 8
  %74 = icmp ne ptr %69, null
  %75 = icmp ne ptr %73, null
  %76 = select i1 %74, i1 %75, i1 false
  br i1 %76, label %77, label %.thread

.thread:                                          ; preds = %72, %68, %32, %36, %19, %.split.split, %.split.split.us
  %.us-phi = phi ptr [ null, %.split.split.us ], [ null, %.split.split ], [ null, %19 ], [ %.0.us35, %36 ], [ %.0.us35, %32 ], [ %.0, %68 ], [ %.0, %72 ]
  call void @llvm.lifetime.end.p0(i64 8, ptr nonnull %6) #11
  ret ptr %.us-phi

77:                                               ; preds = %72
  %78 = zext nneg i32 %.sroa.10.0 to i64
  %79 = getelementptr inbounds nuw %union.ListCell, ptr %73, i64 %78
  %80 = load ptr, ptr %69, align 8
  %81 = getelementptr inbounds nuw i8, ptr %80, i64 8
  %82 = load ptr, ptr %81, align 8
  %83 = load ptr, ptr %79, align 8
  %84 = load i32, ptr %25, align 4
  %85 = add i32 %84, 1
  store i32 %85, ptr %25, align 4
  %86 = trunc i32 %84 to i16
  %87 = call ptr @makeTargetEntry(ptr noundef %83, i16 noundef signext %86, ptr noundef %82, i1 noundef zeroext false) #11
  %88 = call ptr @lappend(ptr noundef %.0, ptr noundef %87) #11
  %89 = add nuw nsw i32 %.sroa.10.0, 1
  br label %.split.split.split, !llvm.loop !30
}